target datalayout = "e-m:e-p270:32:32-p271:32:32-p272:64:64-i64:64-i128:128-f80:128-n8:16:32:64-S128"
target triple = "x86_64-pc-linux-gnu"

%class.btMatrix3x3 = type { [3 x %class.btVector3] }
%class.btVector3 = type { [4 x float] }
%class.btDeformableContactConstraint = type { ptr, i8, ptr, %class.btVector3 }
%"struct.btSoftBody::Node" = type <{ %"struct.btSoftBody::Feature", %class.btVector3, %class.btVector3, %class.btVector3, %class.btVector3, %class.btVector3, %class.btVector3, float, float, ptr, i32, i8, [3 x i8], i32, %class.btVector3, %class.btMatrix3x3, %class.btMatrix3x3, [4 x i8] }>
%"struct.btSoftBody::Feature" = type { %"struct.btSoftBody::Element", ptr }
%"struct.btSoftBody::Element" = type { ptr }
%class.btDeformableRigidContactConstraint = type { %class.btDeformableContactConstraint, %class.btVector3, %class.btVector3, float, float, i8, ptr }
%class.btDeformableNodeRigidContactConstraint = type { %class.btDeformableRigidContactConstraint, ptr }

; Function Attrs: mustprogress nounwind uwtable
define dso_local { <2 x float>, <2 x float> } @_ZNK38btDeformableNodeRigidContactConstraint10getSplitVbEv(ptr noundef nonnull align 8 dereferenceable(104) %0) unnamed_addr #1 align 2 {
  %2 = alloca %class.btVector3, align 4
  %3 = alloca ptr, align 8
  store ptr %0, ptr %3, align 8, !tbaa !122
  %4 = load ptr, ptr %3, align 8
  %5 = getelementptr inbounds nuw %class.btDeformableNodeRigidContactConstraint, ptr %4, i32 0, i32 1
  %6 = load ptr, ptr %5, align 8, !tbaa !126
  %7 = getelementptr inbounds nuw %"struct.btSoftBody::Node", ptr %6, i32 0, i32 14
  call void @llvm.memcpy.p0.p0.i64(ptr align 4 %2, ptr align 4 %7, i64 16, i1 false), !tbaa.struct !31
  %8 = getelementptr inbounds nuw %class.btVector3, ptr %2, i32 0, i32 0
  %9 = load { <2 x float>, <2 x float> }, ptr %8, align 4
  ret { <2 x float>, <2 x float> } %9
}